; Function Attrs: nounwind sspstrong uwtable
define internal i64 @path_f_pathname(i64 %0, i64 noundef %1) #0 {
  %3 = alloca i64, align 8
  store i64 %1, ptr %3, align 8, !tbaa !6
  %4 = icmp eq i64 %1, 0
  %5 = and i64 %1, 7
  %6 = icmp ne i64 %5, 0
  %7 = or i1 %4, %6
  br i1 %7, label %11, label %8

8:                                                ; preds = %2
  %9 = inttoptr i64 %1 to ptr
  %10 = getelementptr inbounds nuw i8, ptr %9, i64 8
  br label %rb_class_of.exit

11:                                               ; preds = %2
  switch i64 %1, label %14 [
    i64 0, label %rb_class_of.exit
    i64 4, label %12
    i64 20, label %13
  ]

12:                                               ; preds = %11
  br label %rb_class_of.exit

13:                                               ; preds = %11
  br label %rb_class_of.exit

14:                                               ; preds = %11
  %15 = and i64 %1, 1
  %.not.i = icmp eq i64 %15, 0
  br i1 %.not.i, label %16, label %rb_class_of.exit

16:                                               ; preds = %14
  %17 = and i64 %1, 254
  %18 = icmp eq i64 %17, 12
  %spec.select.i = select i1 %18, ptr @rb_cSymbol, ptr @rb_cFloat
  br label %rb_class_of.exit

rb_class_of.exit:                                 ; preds = %8, %11, %12, %13, %14, %16
  %.0.in.i = phi ptr [ @rb_cNilClass, %12 ], [ @rb_cTrueClass, %13 ], [ %10, %8 ], [ @rb_cFalseClass, %11 ], [ @rb_cInteger, %14 ], [ %spec.select.i, %16 ]
  %.0.i = load i64, ptr %.0.in.i, align 8, !tbaa !6
  %19 = load i64, ptr @rb_cPathname, align 8, !tbaa !6
  %20 = icmp eq i64 %.0.i, %19
  br i1 %20, label %23, label %21

21:                                               ; preds = %rb_class_of.exit
  %22 = call i64 @rb_class_new_instance(i32 noundef 1, ptr noundef nonnull %3, i64 noundef %19) #7
  br label %23

23:                                               ; preds = %rb_class_of.exit, %21
  %.0 = phi i64 [ %22, %21 ], [ %1, %rb_class_of.exit ]
  ret i64 %.0
}